; Function Attrs: mustprogress nounwind uwtable
define hidden void @_ZN6Assimp11X3DImporter5ClearEv(ptr noundef nonnull align 8 dereferenceable(120) initializes((96, 104)) %0) local_unnamed_addr #8 align 2 personality ptr @__gxx_personality_v0 {
  %2 = getelementptr inbounds nuw i8, ptr %0, i64 96
  store ptr null, ptr %2, align 8
  %3 = getelementptr inbounds nuw i8, ptr %0, i64 72
  %4 = load ptr, ptr %3, align 8
  %5 = icmp eq ptr %4, %3
  br i1 %5, label %20, label %.preheader

6:                                                ; preds = %18
  %7 = load ptr, ptr %3, align 8
  %.not8.i.i = icmp eq ptr %7, %3
  br i1 %.not8.i.i, label %_ZNSt7__cxx114listIP18X3DNodeElementBaseSaIS2_EE5clearEv.exit, label %.lr.ph.i.i

.lr.ph.i.i:                                       ; preds = %6, %.lr.ph.i.i
  %.09.i.i = phi ptr [ %8, %.lr.ph.i.i ], [ %7, %6 ]
  %8 = load ptr, ptr %.09.i.i, align 8
  tail call void @_ZdlPvm(ptr noundef nonnull %.09.i.i, i64 noundef 24) #33
  %.not.i.i = icmp eq ptr %8, %3
  br i1 %.not.i.i, label %_ZNSt7__cxx114listIP18X3DNodeElementBaseSaIS2_EE5clearEv.exit, label %.lr.ph.i.i, !llvm.loop !23

_ZNSt7__cxx114listIP18X3DNodeElementBaseSaIS2_EE5clearEv.exit: ; preds = %.lr.ph.i.i, %6
  %9 = getelementptr inbounds nuw i8, ptr %0, i64 80
  store ptr %3, ptr %9, align 8
  store ptr %3, ptr %3, align 8
  %10 = getelementptr inbounds nuw i8, ptr %0, i64 88
  store i64 0, ptr %10, align 8
  br label %20

.preheader:                                       ; preds = %1, %18
  %.sroa.01.04 = phi ptr [ %19, %18 ], [ %4, %1 ]
  %11 = getelementptr inbounds nuw i8, ptr %.sroa.01.04, i64 16
  %12 = load ptr, ptr %11, align 8
  %13 = icmp eq ptr %12, null
  br i1 %13, label %18, label %14

14:                                               ; preds = %.preheader
  %15 = load ptr, ptr %12, align 8
  %16 = getelementptr inbounds nuw i8, ptr %15, i64 8
  %17 = load ptr, ptr %16, align 8
  tail call void %17(ptr noundef nonnull align 8 dereferenceable(76) %12) #31
  br label %18

18:                                               ; preds = %.preheader, %14
  %19 = load ptr, ptr %.sroa.01.04, align 8
  %.not = icmp eq ptr %19, %3
  br i1 %.not, label %6, label %.preheader, !llvm.loop !24

20:                                               ; preds = %_ZNSt7__cxx114listIP18X3DNodeElementBaseSaIS2_EE5clearEv.exit, %1
  ret void
}